target datalayout = "e-m:e-p270:32:32-p271:32:32-p272:64:64-i64:64-i128:128-f80:128-n8:16:32:64-S128"
target triple = "x86_64-pc-linux-gnu"

%"struct.ofbx::DataView" = type <{ ptr, ptr, i8, [7 x i8] }>
%"struct.ofbx::Property" = type { %"struct.ofbx::IElementProperty", i32, i8, [3 x i8], %"struct.ofbx::DataView", ptr }
%"struct.ofbx::IElementProperty" = type { ptr }
%struct.mz_stream_s = type { ptr, i32, i64, ptr, i32, i64, ptr, ptr, ptr, ptr, ptr, i32, i64, i64 }

; Function Attrs: mustprogress nounwind uwtable
define noundef ptr @_ZN4ofbx10fromStringIfEEPKcS2_S2_PT_(ptr noundef %0, ptr noundef %1, ptr noundef %2) #0 {
  %4 = alloca ptr, align 8
  %5 = alloca ptr, align 8
  %6 = alloca ptr, align 8
  %7 = alloca ptr, align 8
  store ptr %0, ptr %4, align 8
  store ptr %1, ptr %5, align 8
  store ptr %2, ptr %6, align 8
  %8 = load ptr, ptr %4, align 8
  %9 = call double @atof(ptr noundef %8) #14
  %10 = fptrunc double %9 to float
  %11 = load ptr, ptr %6, align 8
  store float %10, ptr %11, align 4
  %12 = load ptr, ptr %4, align 8
  store ptr %12, ptr %7, align 8
  br label %13

13:                                               ; preds = %24, %3
  %14 = load ptr, ptr %7, align 8
  %15 = load ptr, ptr %5, align 8
  %16 = icmp ult ptr %14, %15
  br i1 %16, label %17, label %22

17:                                               ; preds = %13
  %18 = load ptr, ptr %7, align 8
  %19 = load i8, ptr %18, align 1
  %20 = sext i8 %19 to i32
  %21 = icmp ne i32 %20, 44
  br label %22

22:                                               ; preds = %17, %13
  %23 = phi i1 [ false, %13 ], [ %21, %17 ]
  br i1 %23, label %24, label %27

24:                                               ; preds = %22
  %25 = load ptr, ptr %7, align 8
  %26 = getelementptr inbounds i8, ptr %25, i32 1
  store ptr %26, ptr %7, align 8
  br label %13, !llvm.loop !13

27:                                               ; preds = %22
  %28 = load ptr, ptr %7, align 8
  %29 = load ptr, ptr %5, align 8
  %30 = icmp ult ptr %28, %29
  br i1 %30, label %31, label %34

31:                                               ; preds = %27
  %32 = load ptr, ptr %7, align 8
  %33 = getelementptr inbounds i8, ptr %32, i32 1
  store ptr %33, ptr %7, align 8
  br label %34

34:                                               ; preds = %31, %27
  %35 = load ptr, ptr %7, align 8
  ret ptr %35
}

; Function Attrs: mustprogress nounwind uwtable
define internal noundef zeroext i1 @_ZN4ofbxL17parseTextArrayRawIfEEbRKNS_8PropertyEPT_i(ptr noundef nonnull align 8 dereferenceable(48) %0, ptr noundef %1, i32 noundef %2) #0 {
  %4 = alloca i1, align 1
  %5 = alloca ptr, align 8
  %6 = alloca ptr, align 8
  %7 = alloca i32, align 4
  %8 = alloca ptr, align 8
  %9 = alloca ptr, align 8
  store ptr %0, ptr %5, align 8
  store ptr %1, ptr %6, align 8
  store i32 %2, ptr %7, align 4
  %10 = load ptr, ptr %5, align 8
  %11 = getelementptr inbounds %"struct.ofbx::Property", ptr %10, i32 0, i32 4
  %12 = getelementptr inbounds %"struct.ofbx::DataView", ptr %11, i32 0, i32 0
  %13 = load ptr, ptr %12, align 8
  store ptr %13, ptr %8, align 8
  %14 = load ptr, ptr %6, align 8
  store ptr %14, ptr %9, align 8
  br label %15

15:                                               ; preds = %43, %3
  %16 = load ptr, ptr %8, align 8
  %17 = load ptr, ptr %5, align 8
  %18 = getelementptr inbounds %"struct.ofbx::Property", ptr %17, i32 0, i32 4
  %19 = getelementptr inbounds %"struct.ofbx::DataView", ptr %18, i32 0, i32 1
  %20 = load ptr, ptr %19, align 8
  %21 = icmp ult ptr %16, %20
  br i1 %21, label %22, label %44

22:                                               ; preds = %15
  %23 = load ptr, ptr %8, align 8
  %24 = load ptr, ptr %5, align 8
  %25 = getelementptr inbounds %"struct.ofbx::Property", ptr %24, i32 0, i32 4
  %26 = getelementptr inbounds %"struct.ofbx::DataView", ptr %25, i32 0, i32 1
  %27 = load ptr, ptr %26, align 8
  %28 = load ptr, ptr %9, align 8
  %29 = call noundef ptr @_ZN4ofbx10fromStringIfEEPKcS2_S2_PT_(ptr noundef %23, ptr noundef %27, ptr noundef %28)
  store ptr %29, ptr %8, align 8
  %30 = load ptr, ptr %9, align 8
  %31 = getelementptr inbounds float, ptr %30, i32 1
  store ptr %31, ptr %9, align 8
  %32 = load ptr, ptr %9, align 8
  %33 = load ptr, ptr %6, align 8
  %34 = ptrtoint ptr %32 to i64
  %35 = ptrtoint ptr %33 to i64
  %36 = sub i64 %34, %35
  %37 = sdiv exact i64 %36, 4
  %38 = load i32, ptr %7, align 4
  %39 = sext i32 %38 to i64
  %40 = udiv i64 %39, 4
  %41 = icmp eq i64 %37, %40
  br i1 %41, label %42, label %43

42:                                               ; preds = %22
  store i1 true, ptr %4, align 1
  br label %55

43:                                               ; preds = %22
  br label %15, !llvm.loop !38

44:                                               ; preds = %15
  %45 = load ptr, ptr %9, align 8
  %46 = load ptr, ptr %6, align 8
  %47 = ptrtoint ptr %45 to i64
  %48 = ptrtoint ptr %46 to i64
  %49 = sub i64 %47, %48
  %50 = sdiv exact i64 %49, 4
  %51 = load i32, ptr %7, align 4
  %52 = sext i32 %51 to i64
  %53 = udiv i64 %52, 4
  %54 = icmp eq i64 %50, %53
  store i1 %54, ptr %4, align 1
  br label %55

55:                                               ; preds = %44, %42
  %56 = load i1, ptr %4, align 1
  ret i1 %56
}

; Function Attrs: mustprogress uwtable
define internal noundef zeroext i1 @_ZN4ofbxL10decompressEPKhmPhm(ptr noundef %0, i64 noundef %1, ptr noundef %2, i64 noundef %3) #3 {
  %5 = alloca i1, align 1
  %6 = alloca ptr, align 8
  %7 = alloca i64, align 8
  %8 = alloca ptr, align 8
  %9 = alloca i64, align 8
  %10 = alloca %struct.mz_stream_s, align 8
  %11 = alloca i32, align 4
  store ptr %0, ptr %6, align 8
  store i64 %1, ptr %7, align 8
  store ptr %2, ptr %8, align 8
  store i64 %3, ptr %9, align 8
  call void @llvm.memset.p0.i64(ptr align 8 %10, i8 0, i64 112, i1 false)
  %12 = call i32 @mz_inflateInit(ptr noundef %10)
  %13 = load i64, ptr %7, align 8
  %14 = trunc i64 %13 to i32
  %15 = getelementptr inbounds %struct.mz_stream_s, ptr %10, i32 0, i32 1
  store i32 %14, ptr %15, align 8
  %16 = load ptr, ptr %6, align 8
  %17 = getelementptr inbounds %struct.mz_stream_s, ptr %10, i32 0, i32 0
  store ptr %16, ptr %17, align 8
  %18 = load i64, ptr %9, align 8
  %19 = trunc i64 %18 to i32
  %20 = getelementptr inbounds %struct.mz_stream_s, ptr %10, i32 0, i32 4
  store i32 %19, ptr %20, align 8
  %21 = load ptr, ptr %8, align 8
  %22 = getelementptr inbounds %struct.mz_stream_s, ptr %10, i32 0, i32 3
  store ptr %21, ptr %22, align 8
  %23 = call i32 @mz_inflate(ptr noundef %10, i32 noundef 2)
  store i32 %23, ptr %11, align 4
  %24 = load i32, ptr %11, align 4
  %25 = icmp ne i32 %24, 1
  br i1 %25, label %26, label %27

26:                                               ; preds = %4
  store i1 false, ptr %5, align 1
  br label %30

27:                                               ; preds = %4
  %28 = call i32 @mz_inflateEnd(ptr noundef %10)
  %29 = icmp eq i32 %28, 0
  store i1 %29, ptr %5, align 1
  br label %30

30:                                               ; preds = %27, %26
  %31 = load i1, ptr %5, align 1
  ret i1 %31
}

; Function Attrs: mustprogress uwtable
define internal noundef zeroext i1 @_ZN4ofbxL13parseArrayRawIfEEbRKNS_8PropertyEPT_i(ptr noundef nonnull align 8 dereferenceable(48) %0, ptr noundef %1, i32 noundef %2) #3 {
  %4 = alloca i1, align 1
  %5 = alloca ptr, align 8
  %6 = alloca ptr, align 8
  %7 = alloca i32, align 4
  %8 = alloca i32, align 4
  %9 = alloca ptr, align 8
  %10 = alloca i32, align 4
  %11 = alloca i32, align 4
  %12 = alloca i32, align 4
  store ptr %0, ptr %5, align 8
  store ptr %1, ptr %6, align 8
  store i32 %2, ptr %7, align 4
  %13 = load ptr, ptr %5, align 8
  %14 = getelementptr inbounds %"struct.ofbx::Property", ptr %13, i32 0, i32 4
  %15 = getelementptr inbounds %"struct.ofbx::DataView", ptr %14, i32 0, i32 2
  %16 = load i8, ptr %15, align 8
  %17 = trunc i8 %16 to i1
  br i1 %17, label %18, label %104

18:                                               ; preds = %3
  store i32 1, ptr %8, align 4
  %19 = load ptr, ptr %5, align 8
  %20 = getelementptr inbounds %"struct.ofbx::Property", ptr %19, i32 0, i32 2
  %21 = load i8, ptr %20, align 4
  %22 = zext i8 %21 to i32
  switch i32 %22, label %27 [
    i32 108, label %23
    i32 100, label %24
    i32 102, label %25
    i32 105, label %26
  ]

23:                                               ; preds = %18
  store i32 8, ptr %8, align 4
  br label %28

24:                                               ; preds = %18
  store i32 8, ptr %8, align 4
  br label %28

25:                                               ; preds = %18
  store i32 4, ptr %8, align 4
  br label %28

26:                                               ; preds = %18
  store i32 4, ptr %8, align 4
  br label %28

27:                                               ; preds = %18
  store i1 false, ptr %4, align 1
  br label %109

28:                                               ; preds = %26, %25, %24, %23
  %29 = load ptr, ptr %5, align 8
  %30 = getelementptr inbounds %"struct.ofbx::Property", ptr %29, i32 0, i32 4
  %31 = getelementptr inbounds %"struct.ofbx::DataView", ptr %30, i32 0, i32 0
  %32 = load ptr, ptr %31, align 8
  %33 = getelementptr inbounds i8, ptr %32, i64 12
  store ptr %33, ptr %9, align 8
  %34 = load ptr, ptr %9, align 8
  %35 = load ptr, ptr %5, align 8
  %36 = getelementptr inbounds %"struct.ofbx::Property", ptr %35, i32 0, i32 4
  %37 = getelementptr inbounds %"struct.ofbx::DataView", ptr %36, i32 0, i32 1
  %38 = load ptr, ptr %37, align 8
  %39 = icmp ugt ptr %34, %38
  br i1 %39, label %40, label %41

40:                                               ; preds = %28
  store i1 false, ptr %4, align 1
  br label %109

41:                                               ; preds = %28
  %42 = load ptr, ptr %5, align 8
  %43 = load ptr, ptr %42, align 8
  %44 = getelementptr inbounds ptr, ptr %43, i64 5
  %45 = load ptr, ptr %44, align 8
  %46 = call noundef i32 %45(ptr noundef nonnull align 8 dereferenceable(48) %42)
  store i32 %46, ptr %10, align 4
  %47 = load ptr, ptr %5, align 8
  %48 = getelementptr inbounds %"struct.ofbx::Property", ptr %47, i32 0, i32 4
  %49 = getelementptr inbounds %"struct.ofbx::DataView", ptr %48, i32 0, i32 0
  %50 = load ptr, ptr %49, align 8
  %51 = getelementptr inbounds i8, ptr %50, i64 4
  %52 = load i32, ptr %51, align 4
  store i32 %52, ptr %11, align 4
  %53 = load ptr, ptr %5, align 8
  %54 = getelementptr inbounds %"struct.ofbx::Property", ptr %53, i32 0, i32 4
  %55 = getelementptr inbounds %"struct.ofbx::DataView", ptr %54, i32 0, i32 0
  %56 = load ptr, ptr %55, align 8
  %57 = getelementptr inbounds i8, ptr %56, i64 8
  %58 = load i32, ptr %57, align 4
  store i32 %58, ptr %12, align 4
  %59 = load i32, ptr %11, align 4
  %60 = icmp eq i32 %59, 0
  br i1 %60, label %61, label %82

61:                                               ; preds = %41
  %62 = load i32, ptr %12, align 4
  %63 = load i32, ptr %7, align 4
  %64 = icmp sgt i32 %62, %63
  br i1 %64, label %65, label %66

65:                                               ; preds = %61
  store i1 false, ptr %4, align 1
  br label %109

66:                                               ; preds = %61
  %67 = load ptr, ptr %9, align 8
  %68 = load i32, ptr %12, align 4
  %69 = zext i32 %68 to i64
  %70 = getelementptr inbounds i8, ptr %67, i64 %69
  %71 = load ptr, ptr %5, align 8
  %72 = getelementptr inbounds %"struct.ofbx::Property", ptr %71, i32 0, i32 4
  %73 = getelementptr inbounds %"struct.ofbx::DataView", ptr %72, i32 0, i32 1
  %74 = load ptr, ptr %73, align 8
  %75 = icmp ugt ptr %70, %74
  br i1 %75, label %76, label %77

76:                                               ; preds = %66
  store i1 false, ptr %4, align 1
  br label %109

77:                                               ; preds = %66
  %78 = load ptr, ptr %6, align 8
  %79 = load ptr, ptr %9, align 8
  %80 = load i32, ptr %12, align 4
  %81 = zext i32 %80 to i64
  call void @llvm.memcpy.p0.p0.i64(ptr align 4 %78, ptr align 1 %79, i64 %81, i1 false)
  store i1 true, ptr %4, align 1
  br label %109

82:                                               ; preds = %41
  %83 = load i32, ptr %11, align 4
  %84 = icmp eq i32 %83, 1
  br i1 %84, label %85, label %102

85:                                               ; preds = %82
  %86 = load i32, ptr %8, align 4
  %87 = load i32, ptr %10, align 4
  %88 = mul i32 %86, %87
  %89 = load i32, ptr %7, align 4
  %90 = icmp sgt i32 %88, %89
  br i1 %90, label %91, label %92

91:                                               ; preds = %85
  store i1 false, ptr %4, align 1
  br label %109

92:                                               ; preds = %85
  %93 = load ptr, ptr %9, align 8
  %94 = load i32, ptr %12, align 4
  %95 = zext i32 %94 to i64
  %96 = load ptr, ptr %6, align 8
  %97 = load i32, ptr %8, align 4
  %98 = load i32, ptr %10, align 4
  %99 = mul i32 %97, %98
  %100 = zext i32 %99 to i64
  %101 = call noundef zeroext i1 @_ZN4ofbxL10decompressEPKhmPhm(ptr noundef %93, i64 noundef %95, ptr noundef %96, i64 noundef %100)
  store i1 %101, ptr %4, align 1
  br label %109

102:                                              ; preds = %82
  br label %103

103:                                              ; preds = %102
  store i1 false, ptr %4, align 1
  br label %109

104:                                              ; preds = %3
  %105 = load ptr, ptr %5, align 8
  %106 = load ptr, ptr %6, align 8
  %107 = load i32, ptr %7, align 4
  %108 = call noundef zeroext i1 @_ZN4ofbxL17parseTextArrayRawIfEEbRKNS_8PropertyEPT_i(ptr noundef nonnull align 8 dereferenceable(48) %105, ptr noundef %106, i32 noundef %107)
  store i1 %108, ptr %4, align 1
  br label %109

109:                                              ; preds = %104, %103, %92, %91, %77, %76, %65, %40, %27
  %110 = load i1, ptr %4, align 1
  ret i1 %110
}